target datalayout = "e-m:e-p270:32:32-p271:32:32-p272:64:64-i64:64-i128:128-f80:128-n8:16:32:64-S128"
target triple = "x86_64-unknown-linux-gnu"

%struct.timeval = type { i64, i64 }

@trace_events_enabled_count = external global i32, align 4
@message_with_timestamp = external global i8, align 1
@qemu_loglevel = external global i32, align 4
@_TRACE_COMMIT_START_DSTATE = external global i16, align 2
@.str.14 = private unnamed_addr constant [53 x i8] c"%d@%zu.%06zu:commit_start bs %p base %p top %p s %p\0A\00", align 1
@.str.15 = private unnamed_addr constant [40 x i8] c"commit_start bs %p base %p top %p s %p\0A\00", align 1

; Function Attrs: nounwind sspstrong uwtable
define internal zeroext i1 @qemu_loglevel_mask(i32 noundef %mask) #0 {
entry:
  %mask.addr = alloca i32, align 4
  store i32 %mask, ptr %mask.addr, align 4
  %0 = load i32, ptr @qemu_loglevel, align 4
  %1 = load i32, ptr %mask.addr, align 4
  %and = and i32 %0, %1
  %cmp = icmp ne i32 %and, 0
  ret i1 %cmp
}

; Function Attrs: nounwind sspstrong uwtable
define internal void @_nocheck__trace_commit_start(ptr noundef %bs, ptr noundef %base, ptr noundef %top, ptr noundef %s) #0 {
entry:
  %bs.addr = alloca ptr, align 8
  %base.addr = alloca ptr, align 8
  %top.addr = alloca ptr, align 8
  %s.addr = alloca ptr, align 8
  %_now = alloca %struct.timeval, align 8
  store ptr %bs, ptr %bs.addr, align 8
  store ptr %base, ptr %base.addr, align 8
  store ptr %top, ptr %top.addr, align 8
  store ptr %s, ptr %s.addr, align 8
  %0 = load i32, ptr @trace_events_enabled_count, align 4
  %tobool = icmp ne i32 %0, 0
  %lnot = xor i1 %tobool, true
  %lnot1 = xor i1 %lnot, true
  %lnot.ext = zext i1 %lnot1 to i32
  %conv = sext i32 %lnot.ext to i64
  %tobool2 = icmp ne i64 %conv, 0
  br i1 %tobool2, label %land.lhs.true, label %if.end11

land.lhs.true:                                    ; preds = %entry
  %1 = load i16, ptr @_TRACE_COMMIT_START_DSTATE, align 2
  %conv3 = zext i16 %1 to i32
  %tobool4 = icmp ne i32 %conv3, 0
  br i1 %tobool4, label %land.lhs.true5, label %if.end11

land.lhs.true5:                                   ; preds = %land.lhs.true
  %call = call zeroext i1 @qemu_loglevel_mask(i32 noundef 32768)
  br i1 %call, label %if.then, label %if.end11

if.then:                                          ; preds = %land.lhs.true5
  %2 = load i8, ptr @message_with_timestamp, align 1
  %tobool7 = trunc i8 %2 to i1
  br i1 %tobool7, label %if.then8, label %if.else

if.then8:                                         ; preds = %if.then
  %call9 = call i32 @gettimeofday(ptr noundef %_now, ptr noundef null) #5
  %call10 = call i32 @qemu_get_thread_id()
  %tv_sec = getelementptr inbounds %struct.timeval, ptr %_now, i32 0, i32 0
  %3 = load i64, ptr %tv_sec, align 8
  %tv_usec = getelementptr inbounds %struct.timeval, ptr %_now, i32 0, i32 1
  %4 = load i64, ptr %tv_usec, align 8
  %5 = load ptr, ptr %bs.addr, align 8
  %6 = load ptr, ptr %base.addr, align 8
  %7 = load ptr, ptr %top.addr, align 8
  %8 = load ptr, ptr %s.addr, align 8
  call void (ptr, ...) @qemu_log(ptr noundef @.str.14, i32 noundef %call10, i64 noundef %3, i64 noundef %4, ptr noundef %5, ptr noundef %6, ptr noundef %7, ptr noundef %8)
  br label %if.end

if.else:                                          ; preds = %if.then
  %9 = load ptr, ptr %bs.addr, align 8
  %10 = load ptr, ptr %base.addr, align 8
  %11 = load ptr, ptr %top.addr, align 8
  %12 = load ptr, ptr %s.addr, align 8
  call void (ptr, ...) @qemu_log(ptr noundef @.str.15, ptr noundef %9, ptr noundef %10, ptr noundef %11, ptr noundef %12)
  br label %if.end

if.end:                                           ; preds = %if.else, %if.then8
  br label %if.end11

if.end11:                                         ; preds = %if.end, %land.lhs.true5, %land.lhs.true, %entry
  ret void
}

; Function Attrs: nounwind sspstrong uwtable
define internal void @trace_commit_start(ptr noundef %bs, ptr noundef %base, ptr noundef %top, ptr noundef %s) #0 {
entry:
  %bs.addr = alloca ptr, align 8
  %base.addr = alloca ptr, align 8
  %top.addr = alloca ptr, align 8
  %s.addr = alloca ptr, align 8
  store ptr %bs, ptr %bs.addr, align 8
  store ptr %base, ptr %base.addr, align 8
  store ptr %top, ptr %top.addr, align 8
  store ptr %s, ptr %s.addr, align 8
  %0 = load ptr, ptr %bs.addr, align 8
  %1 = load ptr, ptr %base.addr, align 8
  %2 = load ptr, ptr %top.addr, align 8
  %3 = load ptr, ptr %s.addr, align 8
  call void @_nocheck__trace_commit_start(ptr noundef %0, ptr noundef %1, ptr noundef %2, ptr noundef %3)
  ret void
}